target datalayout = "e-m:e-p270:32:32-p271:32:32-p272:64:64-i64:64-i128:128-f80:128-n8:16:32:64-S128"
target triple = "x86_64-pc-linux-gnu"

%struct.cert_store_t = type { %union.pthread_mutex_t, i8, %struct.cert_list_t, %struct.cert_list_t }
%union.pthread_mutex_t = type { %struct.__pthread_mutex_s }
%struct.__pthread_mutex_s = type { i32, i32, i32, i32, i32, i16, i16, %struct.__pthread_internal_list }
%struct.__pthread_internal_list = type { ptr, ptr }
%struct.cert_list_t = type { ptr, i64 }

@_cert_store = internal global %struct.cert_store_t zeroinitializer, align 8
@.str = private unnamed_addr constant [19 x i8] c"Mutex lock failed\0A\00", align 1
@.str.1 = private unnamed_addr constant [21 x i8] c"Mutex unlock failed\0A\00", align 1
@.str.11 = private unnamed_addr constant [1 x i8] zeroinitializer, align 1
@.str.13 = private unnamed_addr constant [17 x i8] c"NULL X509 store\0A\00", align 1
@.str.14 = private unnamed_addr constant [31 x i8] c"Failed to retrieve cert store\0A\00", align 1
@.str.15 = private unnamed_addr constant [23 x i8] c"Cert store not loaded\0A\00", align 1
@.str.16 = private unnamed_addr constant [38 x i8] c"Certificate is already in trust [%s]\0A\00", align 1
@.str.17 = private unnamed_addr constant [66 x i8] c"Failed to add CA certificate for the SSL context. Error: %d [%s]\0A\00", align 1

; Function Attrs: nounwind uwtable
define internal i32 @ERR_GET_REASON(i64 noundef %0) #0 {
  %2 = alloca i32, align 4
  %3 = alloca i64, align 8
  store i64 %0, ptr %3, align 8
  %4 = load i64, ptr %3, align 8
  %5 = and i64 %4, 2147483648
  %6 = icmp ne i64 %5, 0
  br i1 %6, label %7, label %11

7:                                                ; preds = %1
  %8 = load i64, ptr %3, align 8
  %9 = and i64 %8, 2147483647
  %10 = trunc i64 %9 to i32
  store i32 %10, ptr %2, align 4
  br label %15

11:                                               ; preds = %1
  %12 = load i64, ptr %3, align 8
  %13 = and i64 %12, 8388607
  %14 = trunc i64 %13 to i32
  store i32 %14, ptr %2, align 4
  br label %15

15:                                               ; preds = %11, %7
  %16 = load i32, ptr %2, align 4
  ret i32 %16
}

; Function Attrs: nounwind uwtable
define ptr @cert_store_get_int() #0 {
  ret ptr @_cert_store
}

; Function Attrs: nounwind uwtable
define void @cert_store_export_certs(ptr noundef %0, ptr noundef %1) #0 {
  %3 = alloca ptr, align 8
  %4 = alloca ptr, align 8
  %5 = alloca ptr, align 8
  %6 = alloca i32, align 4
  %7 = alloca ptr, align 8
  %8 = alloca i64, align 8
  store ptr %0, ptr %3, align 8
  store ptr %1, ptr %4, align 8
  store ptr null, ptr %5, align 8
  br label %9

9:                                                ; preds = %2
  %10 = load ptr, ptr %3, align 8
  %11 = icmp ne ptr %10, null
  br i1 %11, label %13, label %12

12:                                               ; preds = %9
  call void (i32, ptr, ...) @mprintf(i32 noundef 5, ptr noundef @.str.13)
  br label %82

13:                                               ; preds = %9
  %14 = call ptr @cert_store_get_int()
  store ptr %14, ptr %5, align 8
  %15 = load ptr, ptr %5, align 8
  %16 = icmp ne ptr %15, null
  br i1 %16, label %18, label %17

17:                                               ; preds = %13
  call void (i32, ptr, ...) @mprintf(i32 noundef 5, ptr noundef @.str.14)
  br label %82

18:                                               ; preds = %13
  %19 = load ptr, ptr %5, align 8
  %20 = getelementptr inbounds %struct.cert_store_t, ptr %19, i32 0, i32 0
  %21 = call i32 @pthread_mutex_lock(ptr noundef %20) #10
  store i32 %21, ptr %6, align 4
  %22 = load i32, ptr %6, align 4
  %23 = icmp ne i32 %22, 0
  br i1 %23, label %24, label %27

24:                                               ; preds = %18
  %25 = load i32, ptr %6, align 4
  %26 = call ptr @__errno_location() #11
  store i32 %25, ptr %26, align 4
  call void (i32, ptr, ...) @mprintf(i32 noundef 5, ptr noundef @.str)
  br label %27

27:                                               ; preds = %24, %18
  %28 = load ptr, ptr %5, align 8
  %29 = getelementptr inbounds %struct.cert_store_t, ptr %28, i32 0, i32 1
  %30 = load i8, ptr %29, align 8
  %31 = trunc i8 %30 to i1
  br i1 %31, label %33, label %32

32:                                               ; preds = %27
  call void (i32, ptr, ...) @mprintf(i32 noundef 5, ptr noundef @.str.15)
  br label %82

33:                                               ; preds = %27
  %34 = load ptr, ptr %3, align 8
  %35 = load ptr, ptr %5, align 8
  %36 = getelementptr inbounds %struct.cert_store_t, ptr %35, i32 0, i32 3
  %37 = getelementptr inbounds %struct.cert_list_t, ptr %36, i32 0, i32 0
  %38 = load ptr, ptr %37, align 8
  %39 = load ptr, ptr %5, align 8
  %40 = getelementptr inbounds %struct.cert_store_t, ptr %39, i32 0, i32 3
  %41 = getelementptr inbounds %struct.cert_list_t, ptr %40, i32 0, i32 1
  %42 = load i64, ptr %41, align 8
  call void @cert_fill_X509_store(ptr noundef %34, ptr noundef %38, i64 noundef %42)
  %43 = load ptr, ptr %4, align 8
  %44 = icmp ne ptr %43, null
  br i1 %44, label %45, label %81

45:                                               ; preds = %33
  %46 = load ptr, ptr %3, align 8
  %47 = load ptr, ptr %4, align 8
  %48 = call i32 @X509_STORE_add_cert(ptr noundef %46, ptr noundef %47)
  %49 = icmp ne i32 %48, 1
  br i1 %49, label %50, label %81

50:                                               ; preds = %45
  store ptr null, ptr %7, align 8
  %51 = call i64 @ERR_get_error()
  store i64 %51, ptr %8, align 8
  %52 = load ptr, ptr %4, align 8
  %53 = call i32 @x509_get_cert_name(ptr noundef %52, ptr noundef %7)
  %54 = load i64, ptr %8, align 8
  %55 = call i32 @ERR_GET_REASON(i64 noundef %54)
  %56 = icmp eq i32 101, %55
  br i1 %56, label %57, label %65

57:                                               ; preds = %50
  %58 = load ptr, ptr %7, align 8
  %59 = icmp ne ptr %58, null
  br i1 %59, label %60, label %62

60:                                               ; preds = %57
  %61 = load ptr, ptr %7, align 8
  br label %63

62:                                               ; preds = %57
  br label %63

63:                                               ; preds = %62, %60
  %64 = phi ptr [ %61, %60 ], [ @.str.11, %62 ]
  call void (i32, ptr, ...) @mprintf(i32 noundef 0, ptr noundef @.str.16, ptr noundef %64)
  br label %75

65:                                               ; preds = %50
  %66 = load i64, ptr %8, align 8
  %67 = call i32 @ERR_GET_REASON(i64 noundef %66)
  %68 = load ptr, ptr %7, align 8
  %69 = icmp ne ptr %68, null
  br i1 %69, label %70, label %72

70:                                               ; preds = %65
  %71 = load ptr, ptr %7, align 8
  br label %73

72:                                               ; preds = %65
  br label %73

73:                                               ; preds = %72, %70
  %74 = phi ptr [ %71, %70 ], [ @.str.11, %72 ]
  call void (i32, ptr, ...) @mprintf(i32 noundef 5, ptr noundef @.str.17, i32 noundef %67, ptr noundef %74)
  br label %75

75:                                               ; preds = %73, %63
  %76 = load ptr, ptr %7, align 8
  %77 = icmp ne ptr null, %76
  br i1 %77, label %78, label %80

78:                                               ; preds = %75
  %79 = load ptr, ptr %7, align 8
  call void @free(ptr noundef %79) #10
  store ptr null, ptr %7, align 8
  br label %80

80:                                               ; preds = %78, %75
  br label %81

81:                                               ; preds = %80, %45, %33
  br label %82

82:                                               ; preds = %81, %32, %17, %12
  %83 = load ptr, ptr %5, align 8
  %84 = icmp ne ptr %83, null
  br i1 %84, label %85, label %95

85:                                               ; preds = %82
  %86 = load ptr, ptr %5, align 8
  %87 = getelementptr inbounds %struct.cert_store_t, ptr %86, i32 0, i32 0
  %88 = call i32 @pthread_mutex_unlock(ptr noundef %87) #10
  store i32 %88, ptr %6, align 4
  %89 = load i32, ptr %6, align 4
  %90 = icmp ne i32 %89, 0
  br i1 %90, label %91, label %94

91:                                               ; preds = %85
  %92 = load i32, ptr %6, align 4
  %93 = call ptr @__errno_location() #11
  store i32 %92, ptr %93, align 4
  call void (i32, ptr, ...) @mprintf(i32 noundef 5, ptr noundef @.str.1)
  br label %94

94:                                               ; preds = %91, %85
  br label %95

95:                                               ; preds = %94, %82
  ret void
}