; Function Attrs: nounwind uwtable
define void @cert_store_export_certs(ptr noundef %0, ptr noundef %1) local_unnamed_addr #1 {
  %3 = alloca ptr, align 8
  %.not = icmp eq ptr %0, null
  br i1 %.not, label %30, label %4

4:                                                ; preds = %2
  %5 = tail call i32 @pthread_mutex_lock(ptr noundef nonnull @_cert_store) #15
  %.not24 = icmp eq i32 %5, 0
  br i1 %.not24, label %8, label %6

6:                                                ; preds = %4
  %7 = tail call ptr @__errno_location() #16
  store i32 %5, ptr %7, align 4
  tail call void (i32, ptr, ...) @mprintf(i32 noundef 5, ptr noundef nonnull @.str) #15
  br label %8

8:                                                ; preds = %6, %4
  %9 = load i8, ptr getelementptr inbounds (%struct.cert_store_t, ptr @_cert_store, i64 0, i32 1), align 8
  %10 = trunc i8 %9 to i1
  br i1 %10, label %12, label %11

11:                                               ; preds = %8
  tail call void (i32, ptr, ...) @mprintf(i32 noundef 5, ptr noundef nonnull @.str.15) #15
  br label %31

12:                                               ; preds = %8
  %13 = load ptr, ptr getelementptr inbounds (%struct.cert_store_t, ptr @_cert_store, i64 0, i32 3), align 8
  %14 = load i64, ptr getelementptr inbounds (%struct.cert_store_t, ptr @_cert_store, i64 0, i32 3, i32 1), align 8
  tail call void @cert_fill_X509_store(ptr noundef nonnull %0, ptr noundef %13, i64 noundef %14)
  %.not25 = icmp eq ptr %1, null
  br i1 %.not25, label %31, label %15

15:                                               ; preds = %12
  %16 = tail call i32 @X509_STORE_add_cert(ptr noundef nonnull %0, ptr noundef nonnull %1) #15
  %.not26 = icmp eq i32 %16, 1
  br i1 %.not26, label %31, label %17

17:                                               ; preds = %15
  store ptr null, ptr %3, align 8
  %18 = tail call i64 @ERR_get_error() #15
  %19 = call i32 @x509_get_cert_name(ptr noundef nonnull %1, ptr noundef nonnull %3), !range !5
  %20 = and i64 %18, 2147483648
  %.not.i = icmp eq i64 %20, 0
  %21 = trunc i64 %18 to i32
  %.0.v.i = select i1 %.not.i, i32 8388607, i32 2147483647
  %.0.i = and i32 %.0.v.i, %21
  %22 = icmp eq i32 %.0.i, 101
  %23 = load ptr, ptr %3, align 8
  %.not28 = icmp eq ptr %23, null
  %24 = select i1 %.not28, ptr @.str.11, ptr %23
  br i1 %22, label %25, label %26

25:                                               ; preds = %17
  call void (i32, ptr, ...) @mprintf(i32 noundef 0, ptr noundef nonnull @.str.16, ptr noundef nonnull %24) #15
  br label %27

26:                                               ; preds = %17
  call void (i32, ptr, ...) @mprintf(i32 noundef 5, ptr noundef nonnull @.str.17, i32 noundef %.0.i, ptr noundef nonnull %24) #15
  br label %27

27:                                               ; preds = %26, %25
  %28 = load ptr, ptr %3, align 8
  %.not29 = icmp eq ptr %28, null
  br i1 %.not29, label %31, label %29

29:                                               ; preds = %27
  call void @free(ptr noundef nonnull %28) #15
  store ptr null, ptr %3, align 8
  br label %31

30:                                               ; preds = %2
  tail call void (i32, ptr, ...) @mprintf(i32 noundef 5, ptr noundef nonnull @.str.13) #15
  br label %35

31:                                               ; preds = %12, %15, %29, %27, %11
  %32 = call i32 @pthread_mutex_unlock(ptr noundef nonnull @_cert_store) #15
  %.not31 = icmp eq i32 %32, 0
  br i1 %.not31, label %35, label %33

33:                                               ; preds = %31
  %34 = tail call ptr @__errno_location() #16
  store i32 %32, ptr %34, align 4
  call void (i32, ptr, ...) @mprintf(i32 noundef 5, ptr noundef nonnull @.str.1) #15
  br label %35

35:                                               ; preds = %30, %31, %33
  ret void
}